(dp1
S'baselayer'
p2
(dp3
S'sortable'
p4
I3
sS'sql'
p5
S'TEXT'
p6
sS'length'
p7
I32768
sS'notnull'
p8
I00
sS'unique'
p9
I00
sS'type'
p10
S'text'
p11
ssS'id'
p12
(dp13
g4
I1
sg5
S'SERIAL PRIMARY KEY'
p14
sg7
I512
sg8
I00
sg9
I00
sg10
S'id'
p15
ssS'tempid'
p16
(dp17
g4
I2
sg5
S'INTEGER'
p18
sg7
I512
sg8
I00
sg9
I00
sg10
S'integer'
p19
ss.